target datalayout = "e-m:e-p270:32:32-p271:32:32-p272:64:64-i64:64-i128:128-f80:128-n8:16:32:64-S128"
target triple = "x86_64-pc-linux-gnu"

%struct._object = type { %union.anon, ptr }
%union.anon = type { i64 }
%struct.PyDateTime_CAPI = type { ptr, ptr, ptr, ptr, ptr, ptr, ptr, ptr, ptr, ptr, ptr, ptr, ptr, ptr, ptr }
%struct.anon = type { i32, i32 }

@_Py_NoneStruct = external global %struct._object, align 8
@PyDateTimeAPI = internal global ptr null, align 8
@.str.28 = private unnamed_addr constant [6 x i8] c"OO|pp\00", align 1

; Function Attrs: alwaysinline nounwind uwtable
define internal i32 @_Py_IsImmortal(ptr noundef %0) #4 {
  %2 = alloca ptr, align 8
  store ptr %0, ptr %2, align 8, !tbaa !3
  %3 = load ptr, ptr %2, align 8, !tbaa !3
  %4 = getelementptr inbounds nuw %struct._object, ptr %3, i32 0, i32 0
  %5 = getelementptr inbounds nuw %struct.anon, ptr %4, i32 0, i32 0
  %6 = load i32, ptr %5, align 8, !tbaa !8
  %7 = icmp slt i32 %6, 0
  %8 = zext i1 %7 to i32
  ret i32 %8
}

; Function Attrs: alwaysinline nounwind uwtable
define internal void @Py_DECREF(ptr noundef %0) #4 {
  %2 = alloca ptr, align 8
  store ptr %0, ptr %2, align 8, !tbaa !3
  %3 = load ptr, ptr %2, align 8, !tbaa !3
  %4 = call i32 @_Py_IsImmortal(ptr noundef %3)
  %5 = icmp ne i32 %4, 0
  br i1 %5, label %6, label %7

6:                                                ; preds = %1
  br label %16

7:                                                ; preds = %1
  %8 = load ptr, ptr %2, align 8, !tbaa !3
  %9 = getelementptr inbounds nuw %struct._object, ptr %8, i32 0, i32 0
  %10 = getelementptr inbounds nuw %struct.anon, ptr %9, i32 0, i32 0
  %11 = load i32, ptr %10, align 8, !tbaa !8
  %12 = add i32 %11, -1
  store i32 %12, ptr %10, align 8, !tbaa !8
  %13 = icmp eq i32 %12, 0
  br i1 %13, label %14, label %16

14:                                               ; preds = %7
  %15 = load ptr, ptr %2, align 8, !tbaa !3
  call void @_Py_Dealloc(ptr noundef %15)
  br label %16

16:                                               ; preds = %6, %14, %7
  ret void
}

; Function Attrs: nounwind uwtable
define internal ptr @get_datetime_fromtimestamp(ptr noundef %0, ptr noundef %1) #0 {
  %3 = alloca ptr, align 8
  %4 = alloca ptr, align 8
  %5 = alloca ptr, align 8
  %6 = alloca i32, align 4
  %7 = alloca i32, align 4
  %8 = alloca ptr, align 8
  %9 = alloca ptr, align 8
  %10 = alloca ptr, align 8
  %11 = alloca ptr, align 8
  %12 = alloca i32, align 4
  store ptr %0, ptr %4, align 8, !tbaa !3
  store ptr %1, ptr %5, align 8, !tbaa !3
  call void @llvm.lifetime.start.p0(i64 4, ptr %6) #6
  store i32 0, ptr %6, align 4, !tbaa !9
  call void @llvm.lifetime.start.p0(i64 4, ptr %7) #6
  store i32 0, ptr %7, align 4, !tbaa !9
  call void @llvm.lifetime.start.p0(i64 8, ptr %8) #6
  store ptr null, ptr %8, align 8, !tbaa !3
  call void @llvm.lifetime.start.p0(i64 8, ptr %9) #6
  store ptr null, ptr %9, align 8, !tbaa !3
  call void @llvm.lifetime.start.p0(i64 8, ptr %10) #6
  store ptr @_Py_NoneStruct, ptr %10, align 8, !tbaa !3
  call void @llvm.lifetime.start.p0(i64 8, ptr %11) #6
  store ptr null, ptr %11, align 8, !tbaa !3
  %13 = load ptr, ptr %5, align 8, !tbaa !3
  %14 = call i32 (ptr, ptr, ...) @PyArg_ParseTuple(ptr noundef %13, ptr noundef @.str.28, ptr noundef %9, ptr noundef %10, ptr noundef %7, ptr noundef %6)
  %15 = icmp ne i32 %14, 0
  br i1 %15, label %17, label %16

16:                                               ; preds = %2
  store ptr null, ptr %3, align 8
  store i32 1, ptr %12, align 4
  br label %55

17:                                               ; preds = %2
  %18 = load i32, ptr %7, align 4, !tbaa !9
  %19 = icmp ne i32 %18, 0
  br i1 %19, label %20, label %24

20:                                               ; preds = %17
  %21 = load ptr, ptr %9, align 8, !tbaa !3
  %22 = load ptr, ptr %10, align 8, !tbaa !3
  %23 = call ptr (i64, ...) @PyTuple_Pack(i64 noundef 2, ptr noundef %21, ptr noundef %22)
  store ptr %23, ptr %8, align 8, !tbaa !3
  br label %27

24:                                               ; preds = %17
  %25 = load ptr, ptr %9, align 8, !tbaa !3
  %26 = call ptr (i64, ...) @PyTuple_Pack(i64 noundef 1, ptr noundef %25)
  store ptr %26, ptr %8, align 8, !tbaa !3
  br label %27

27:                                               ; preds = %24, %20
  %28 = load ptr, ptr %8, align 8, !tbaa !3
  %29 = icmp eq ptr %28, null
  br i1 %29, label %30, label %31

30:                                               ; preds = %27
  store ptr null, ptr %3, align 8
  store i32 1, ptr %12, align 4
  br label %55

31:                                               ; preds = %27
  %32 = load i32, ptr %6, align 4, !tbaa !9
  %33 = icmp ne i32 %32, 0
  br i1 %33, label %34, label %43

34:                                               ; preds = %31
  %35 = load ptr, ptr @PyDateTimeAPI, align 8, !tbaa !24
  %36 = getelementptr inbounds nuw %struct.PyDateTime_CAPI, ptr %35, i32 0, i32 11
  %37 = load ptr, ptr %36, align 8, !tbaa !35
  %38 = load ptr, ptr @PyDateTimeAPI, align 8, !tbaa !24
  %39 = getelementptr inbounds nuw %struct.PyDateTime_CAPI, ptr %38, i32 0, i32 1
  %40 = load ptr, ptr %39, align 8, !tbaa !27
  %41 = load ptr, ptr %8, align 8, !tbaa !3
  %42 = call ptr %37(ptr noundef %40, ptr noundef %41, ptr noundef null)
  store ptr %42, ptr %11, align 8, !tbaa !3
  br label %52

43:                                               ; preds = %31
  %44 = load ptr, ptr @PyDateTimeAPI, align 8, !tbaa !24
  %45 = getelementptr inbounds nuw %struct.PyDateTime_CAPI, ptr %44, i32 0, i32 11
  %46 = load ptr, ptr %45, align 8, !tbaa !35
  %47 = load ptr, ptr @PyDateTimeAPI, align 8, !tbaa !24
  %48 = getelementptr inbounds nuw %struct.PyDateTime_CAPI, ptr %47, i32 0, i32 1
  %49 = load ptr, ptr %48, align 8, !tbaa !27
  %50 = load ptr, ptr %8, align 8, !tbaa !3
  %51 = call ptr %46(ptr noundef %49, ptr noundef %50, ptr noundef null)
  store ptr %51, ptr %11, align 8, !tbaa !3
  br label %52

52:                                               ; preds = %43, %34
  %53 = load ptr, ptr %8, align 8, !tbaa !3
  call void @Py_DECREF(ptr noundef %53)
  %54 = load ptr, ptr %11, align 8, !tbaa !3
  store ptr %54, ptr %3, align 8
  store i32 1, ptr %12, align 4
  br label %55

55:                                               ; preds = %52, %30, %16
  call void @llvm.lifetime.end.p0(i64 8, ptr %11) #6
  call void @llvm.lifetime.end.p0(i64 8, ptr %10) #6
  call void @llvm.lifetime.end.p0(i64 8, ptr %9) #6
  call void @llvm.lifetime.end.p0(i64 8, ptr %8) #6
  call void @llvm.lifetime.end.p0(i64 4, ptr %7) #6
  call void @llvm.lifetime.end.p0(i64 4, ptr %6) #6
  %56 = load ptr, ptr %3, align 8
  ret ptr %56
}