; Function Attrs: nounwind uwtable
define internal ptr @get_datetime_fromtimestamp(ptr readnone captures(none) %0, ptr noundef %1) #0 {
  %3 = alloca i32, align 4
  %4 = alloca i32, align 4
  %5 = alloca ptr, align 8
  %6 = alloca ptr, align 8
  call void @llvm.lifetime.start.p0(i64 4, ptr nonnull %3) #4
  store i32 0, ptr %3, align 4, !tbaa !22
  call void @llvm.lifetime.start.p0(i64 4, ptr nonnull %4) #4
  store i32 0, ptr %4, align 4, !tbaa !22
  call void @llvm.lifetime.start.p0(i64 8, ptr nonnull %5) #4
  store ptr null, ptr %5, align 8, !tbaa !23
  call void @llvm.lifetime.start.p0(i64 8, ptr nonnull %6) #4
  store ptr @_Py_NoneStruct, ptr %6, align 8, !tbaa !23
  %7 = call i32 (ptr, ptr, ...) @PyArg_ParseTuple(ptr noundef %1, ptr noundef nonnull @.str.28, ptr noundef nonnull %5, ptr noundef nonnull %6, ptr noundef nonnull %4, ptr noundef nonnull %3) #4
  %.not = icmp eq i32 %7, 0
  br i1 %.not, label %Py_DECREF.exit, label %8

8:                                                ; preds = %2
  %9 = load i32, ptr %4, align 4, !tbaa !22
  %.not9 = icmp eq i32 %9, 0
  %10 = load ptr, ptr %5, align 8, !tbaa !23
  br i1 %.not9, label %14, label %11

11:                                               ; preds = %8
  %12 = load ptr, ptr %6, align 8, !tbaa !23
  %13 = call ptr (i64, ...) @PyTuple_Pack(i64 noundef 2, ptr noundef %10, ptr noundef %12) #4
  br label %16

14:                                               ; preds = %8
  %15 = call ptr (i64, ...) @PyTuple_Pack(i64 noundef 1, ptr noundef %10) #4
  br label %16

16:                                               ; preds = %14, %11
  %.07 = phi ptr [ %13, %11 ], [ %15, %14 ]
  %17 = icmp eq ptr %.07, null
  br i1 %17, label %Py_DECREF.exit, label %18

18:                                               ; preds = %16
  %19 = load ptr, ptr @PyDateTimeAPI, align 8, !tbaa !24
  %20 = getelementptr inbounds nuw i8, ptr %19, i64 88
  %21 = load ptr, ptr %20, align 8, !tbaa !36
  %22 = getelementptr inbounds nuw i8, ptr %19, i64 8
  %23 = load ptr, ptr %22, align 8, !tbaa !28
  %24 = call ptr %21(ptr noundef %23, ptr noundef nonnull %.07, ptr noundef null) #4
  %25 = load i32, ptr %.07, align 8, !tbaa !3
  %.not.i = icmp sgt i32 %25, -1
  br i1 %.not.i, label %26, label %Py_DECREF.exit

26:                                               ; preds = %18
  %27 = add nsw i32 %25, -1
  store i32 %27, ptr %.07, align 8, !tbaa !3
  %28 = icmp eq i32 %27, 0
  br i1 %28, label %29, label %Py_DECREF.exit

29:                                               ; preds = %26
  call void @_Py_Dealloc(ptr noundef nonnull %.07) #4
  br label %Py_DECREF.exit

Py_DECREF.exit:                                   ; preds = %29, %26, %18, %16, %2
  %.08 = phi ptr [ null, %2 ], [ null, %16 ], [ %24, %18 ], [ %24, %26 ], [ %24, %29 ]
  call void @llvm.lifetime.end.p0(i64 8, ptr nonnull %6) #4
  call void @llvm.lifetime.end.p0(i64 8, ptr nonnull %5) #4
  call void @llvm.lifetime.end.p0(i64 4, ptr nonnull %4) #4
  call void @llvm.lifetime.end.p0(i64 4, ptr nonnull %3) #4
  ret ptr %.08
}